; Function Attrs: nounwind uwtable
define hidden ptr @mi_new_aligned(i64 noundef %0, i64 noundef %1) #3 {
  %3 = tail call noalias ptr @mi_malloc_aligned(i64 noundef %0, i64 noundef %1) #19
  %4 = icmp eq ptr %3, null
  br i1 %4, label %.lr.ph, label %.critedge

.lr.ph:                                           ; preds = %2, %mi_try_new_handler.exit
  %5 = tail call ptr @_ZSt15get_new_handlerv() #20
  %.not = icmp eq ptr %5, null
  br i1 %.not, label %6, label %mi_try_new_handler.exit

6:                                                ; preds = %.lr.ph
  tail call void (i32, ptr, ...) @_mi_error_message(i32 noundef 12, ptr noundef nonnull @.str.4) #19
  tail call void @abort() #21
  unreachable

mi_try_new_handler.exit:                          ; preds = %.lr.ph
  tail call void %5() #19
  %7 = tail call noalias ptr @mi_malloc_aligned(i64 noundef %0, i64 noundef %1) #19
  %8 = icmp eq ptr %7, null
  br i1 %8, label %.lr.ph, label %.critedge, !llvm.loop !32

.critedge:                                        ; preds = %mi_try_new_handler.exit, %2
  %.lcssa = phi ptr [ %3, %2 ], [ %7, %mi_try_new_handler.exit ]
  ret ptr %.lcssa
}